target datalayout = "e-m:e-p270:32:32-p271:32:32-p272:64:64-i64:64-i128:128-f80:128-n8:16:32:64-S128"
target triple = "x86_64-unknown-linux-gnu"

%struct.gpr_timespec = type { i64, i32, i32 }
%struct.grpc_jwt_claims = type { ptr, ptr, ptr, ptr, %struct.gpr_timespec, %struct.gpr_timespec, %struct.gpr_timespec, %"class.grpc_core::ManualConstructor" }
%"class.grpc_core::ManualConstructor" = type { [56 x i8] }

; Function Attrs: mustprogress uwtable
define { i64, i64 } @_Z25grpc_jwt_claims_issued_atPK15grpc_jwt_claims(ptr noundef %claims) #5 {
entry:
  %retval = alloca %struct.gpr_timespec, align 8
  %claims.addr = alloca ptr, align 8
  store ptr %claims, ptr %claims.addr, align 8
  %0 = load ptr, ptr %claims.addr, align 8
  %cmp = icmp eq ptr %0, null
  br i1 %cmp, label %if.then, label %if.end

if.then:                                          ; preds = %entry
  %call = call { i64, i64 } @gpr_inf_past(i32 noundef 1)
  %1 = getelementptr inbounds { i64, i64 }, ptr %retval, i32 0, i32 0
  %2 = extractvalue { i64, i64 } %call, 0
  store i64 %2, ptr %1, align 8
  %3 = getelementptr inbounds { i64, i64 }, ptr %retval, i32 0, i32 1
  %4 = extractvalue { i64, i64 } %call, 1
  store i64 %4, ptr %3, align 8
  br label %return

if.end:                                           ; preds = %entry
  %5 = load ptr, ptr %claims.addr, align 8
  %iat = getelementptr inbounds %struct.grpc_jwt_claims, ptr %5, i32 0, i32 4
  call void @llvm.memcpy.p0.p0.i64(ptr align 8 %retval, ptr align 8 %iat, i64 16, i1 false)
  br label %return

return:                                           ; preds = %if.end, %if.then
  %6 = load { i64, i64 }, ptr %retval, align 8
  ret { i64, i64 } %6
}