; Function Attrs: mustprogress uwtable
define { i64, i64 } @_Z25grpc_jwt_claims_issued_atPK15grpc_jwt_claims(ptr noundef readonly %claims) local_unnamed_addr #4 {
entry:
  %cmp = icmp eq ptr %claims, null
  br i1 %cmp, label %if.then, label %if.end

if.then:                                          ; preds = %entry
  %call = tail call { i64, i64 } @gpr_inf_past(i32 noundef 1)
  %0 = extractvalue { i64, i64 } %call, 0
  %1 = extractvalue { i64, i64 } %call, 1
  br label %return

if.end:                                           ; preds = %entry
  %iat = getelementptr inbounds i8, ptr %claims, i64 32
  %retval.sroa.0.0.copyload = load i64, ptr %iat, align 8
  %retval.sroa.3.0.iat.sroa_idx = getelementptr inbounds i8, ptr %claims, i64 40
  %retval.sroa.3.0.copyload = load i64, ptr %retval.sroa.3.0.iat.sroa_idx, align 8
  br label %return

return:                                           ; preds = %if.end, %if.then
  %retval.sroa.0.0 = phi i64 [ %0, %if.then ], [ %retval.sroa.0.0.copyload, %if.end ]
  %retval.sroa.3.0 = phi i64 [ %1, %if.then ], [ %retval.sroa.3.0.copyload, %if.end ]
  %.fca.0.insert = insertvalue { i64, i64 } poison, i64 %retval.sroa.0.0, 0
  %.fca.1.insert = insertvalue { i64, i64 } %.fca.0.insert, i64 %retval.sroa.3.0, 1
  ret { i64, i64 } %.fca.1.insert
}